(dp1
S'OriginalConfig'
p2
ccopy_reg
_reconstructor
p3
(cWMCore.Configuration
Configuration
p4
c__builtin__
object
p5
NtRp6
(dp7
S'Site'
p8
g3
(cWMCore.Configuration
ConfigSection
p9
g5
NtRp10
(dp11
S'_internal_skipChecks'
p12
I00
sS'_internal_documentation'
p13
S''
sS'_internal_settings'
p14
c__builtin__
set
p15
((lp16
S'whitelist'
p17
aS'storageSite'
p18
atRp19
sS'_internal_name'
p20
g8
sS'_internal_docstrings'
p21
(dp22
sS'_internal_children'
p23
g15
((ltRp24
sg18
S'T3_US_FNALLPC'
p25
sS'_internal_parent_ref'
p26
Nsg17
(lp27
S'T2_US*'
p28
asbsS'_internal_sections'
p29
(lp30
S'General'
p31
aS'JobType'
p32
aS'Data'
p33
ag8
aS'User'
p34
aS'Debug'
p35
asg31
g3
(g9
g5
NtRp36
(dp37
S'transferLogs'
p38
I00
sg12
I00
sg13
S''
sg14
g15
((lp39
g38
aS'transferOutputs'
p40
aS'workArea'
p41
aS'requestName'
p42
atRp43
sg20
g31
sg21
(dp44
sg40
I01
sg23
g15
((ltRp45
sg42
S'DYJetsToLL_M-50_TuneCUETP8M1_13TeV-amcatnloFXFX-pythia8'
p46
sg26
Nsg41
S'mc_2016'
p47
sbsS'_internal_webapps'
p48
(lp49
sg34
g3
(g9
g5
NtRp50
(dp51
g12
I00
sg13
S''
sg14
g15
((ltRp52
sg20
g34
sg21
(dp53
sg23
g15
((ltRp54
sg26
NsbsS'_internal_components'
p55
(lp56
sg35
g3
(g9
g5
NtRp57
(dp58
g12
I00
sg13
S''
sg14
g15
((ltRp59
sg20
g35
sg21
(dp60
sg23
g15
((ltRp61
sg26
Nsbsg33
g3
(g9
g5
NtRp62
(dp63
S'inputDataset'
p64
S'/DYJetsToLL_M-50_TuneCUETP8M1_13TeV-amcatnloFXFX-pythia8/RunIISummer16MiniAODv3-PUMoriond17_94X_mcRun2_asymptotic_v3_ext2-v1/MINIAODSIM'
p65
sS'outputDatasetTag'
p66
S'mc_2016_DYJetsToLL_M-50_TuneCUETP8M1_13TeV-amcatnloFXFX-pythia8'
p67
sg12
I00
sS'splitting'
p68
S'FileBased'
p69
sS'unitsPerJob'
p70
I1
sg13
S''
sg14
g15
((lp71
g64
ag66
aS'totalUnits'
p72
ag70
aS'ignoreLocality'
p73
aS'inputDBS'
p74
ag68
aS'outLFNDirBase'
p75
atRp76
sg73
I01
sg20
g33
sg74
S'global'
p77
sg21
(dp78
sg23
g15
((ltRp79
sg75
S'/store/user/jrainbol/mc_2016/'
p80
sg26
Nsg72
I400
sbsg32
g3
(g9
g5
NtRp81
(dp82
S'outputFiles'
p83
(lp84
S'Output.root'
p85
asg12
I00
sg13
S''
sg14
g15
((lp86
S'psetName'
p87
aS'pluginName'
p88
ag83
atRp89
sg20
g32
sg21
(dp90
sg88
S'Analysis'
p91
sg23
g15
((ltRp92
sg87
S'makingBacon_MC_25ns_MINIAOD.py'
p93
sg26
NsbsbsS'voGroup'
p94
S''
sS'Server'
p95
S'cmsweb.cern.ch'
p96
sS'instance'
p97
S'prod'
p98
sS'RequestName'
p99
V190119_165651:jrainbol_crab_DYJetsToLL_M-50_TuneCUETP8M1_13TeV-amcatnloFXFX-pythia8
p100
sS'voRole'
p101
S'NULL'
p102
sS'Port'
p103
S''
s.