(dp1
S'OriginalConfig'
p2
ccopy_reg
_reconstructor
p3
(cWMCore.Configuration
Configuration
p4
c__builtin__
object
p5
NtRp6
(dp7
S'Site'
p8
g3
(cWMCore.Configuration
ConfigSection
p9
g5
NtRp10
(dp11
S'_internal_skipChecks'
p12
I00
sS'_internal_documentation'
p13
S''
sS'_internal_settings'
p14
c__builtin__
set
p15
((lp16
S'whitelist'
p17
aS'storageSite'
p18
atRp19
sS'_internal_name'
p20
g8
sS'_internal_docstrings'
p21
(dp22
sS'_internal_children'
p23
g15
((ltRp24
sg18
S'T3_US_FNALLPC'
p25
sS'_internal_parent_ref'
p26
Nsg17
(lp27
S'T2_US*'
p28
asbsS'_internal_sections'
p29
(lp30
S'General'
p31
aS'JobType'
p32
aS'Data'
p33
ag8
aS'User'
p34
aS'Debug'
p35
asg31
g3
(g9
g5
NtRp36
(dp37
S'transferLogs'
p38
I00
sg12
I00
sg13
S''
sg14
g15
((lp39
g38
aS'transferOutputs'
p40
aS'workArea'
p41
aS'requestName'
p42
atRp43
sg20
g31
sg21
(dp44
sg40
I01
sg23
g15
((ltRp45
sg42
S'DoubleEG_Run2016H-17Jul2018-v1'
p46
sg26
Nsg41
S'data_2016'
p47
sbsS'_internal_webapps'
p48
(lp49
sg34
g3
(g9
g5
NtRp50
(dp51
g12
I00
sg13
S''
sg14
g15
((ltRp52
sg20
g34
sg21
(dp53
sg23
g15
((ltRp54
sg26
NsbsS'_internal_components'
p55
(lp56
sg35
g3
(g9
g5
NtRp57
(dp58
S'extraJDL'
p59
(lp60
S'+CMS_ALLOW_OVERFLOW=False'
p61
asg12
I00
sg13
S''
sg14
g15
((lp62
g59
atRp63
sg20
g35
sg21
(dp64
sg23
g15
((ltRp65
sg26
Nsbsg33
g3
(g9
g5
NtRp66
(dp67
S'inputDataset'
p68
S'/DoubleEG/Run2016H-17Jul2018-v1/MINIAOD'
p69
sS'outputDatasetTag'
p70
S'data_2016_DoubleEG_Run2016H-17Jul2018-v1'
p71
sg12
I00
sS'splitting'
p72
S'EventAwareLumiBased'
p73
sS'unitsPerJob'
p74
I5000
sg13
S''
sg14
g15
((lp75
g68
ag70
aS'totalUnits'
p76
ag74
aS'ignoreLocality'
p77
aS'inputDBS'
p78
ag72
aS'outLFNDirBase'
p79
atRp80
sg77
I01
sg20
g33
sg78
S'global'
p81
sg21
(dp82
sg23
g15
((ltRp83
sg79
S'/store/user/jrainbol/data_2016/'
p84
sg26
Nsg76
I1000000
sbsg32
g3
(g9
g5
NtRp85
(dp86
S'outputFiles'
p87
(lp88
S'Output.root'
p89
asg12
I00
sg13
S''
sg14
g15
((lp90
S'psetName'
p91
aS'pluginName'
p92
ag87
atRp93
sg20
g32
sg21
(dp94
sg92
S'Analysis'
p95
sg23
g15
((ltRp96
sg91
S'makingBacon_Data_25ns_MINIAOD.py'
p97
sg26
NsbsbsS'voGroup'
p98
S''
sS'Server'
p99
S'cmsweb.cern.ch'
p100
sS'instance'
p101
S'prod'
p102
sS'RequestName'
p103
V190117_235631:jrainbol_crab_DoubleEG_Run2016H-17Jul2018-v1
p104
sS'voRole'
p105
S'NULL'
p106
sS'Port'
p107
S''
s.